(dp0
Vengine
p1
S'pdflatex'
p2
sVpackages
p3
c__builtin__
set
p4
((lp5
Vbooktabs
p6
aVgraphicx
p7
aVbeamerposter
p8
atp9
Rp10
sVfiles_with_guttermarks
p11
g4
((lp12
V/Users/carter/Documents/School/Fall_2018/Research/SN/poster/./main.tex
p13
aS'main.tex'
p14
atp15
Rp16
sVsynctex
p17
I01
s.